target datalayout = "e-m:e-p270:32:32-p271:32:32-p272:64:64-i64:64-i128:128-f80:128-n8:16:32:64-S128"
target triple = "x86_64-pc-linux-gnu"

%struct.shm_mq = type { i8, ptr, ptr, %struct.pg_atomic_uint64, %struct.pg_atomic_uint64, i64, i8, i8, [0 x i8] }
%struct.pg_atomic_uint64 = type { i64 }

@.str = private unnamed_addr constant [9 x i8] c"shm_mq.c\00", align 1
@MyLatch = external global ptr, align 8
@InterruptPending = external global i32, align 4
@__func__.shm_mq_wait_internal = private unnamed_addr constant [21 x i8] c"shm_mq_wait_internal\00", align 1

; Function Attrs: inlinehint nounwind uwtable
define internal i32 @tas(ptr noundef %0) #2 {
  %2 = alloca ptr, align 8
  %3 = alloca i8, align 1
  store ptr %0, ptr %2, align 8
  call void @llvm.lifetime.start.p0(i64 1, ptr %3) #8
  store i8 1, ptr %3, align 1
  %4 = load i8, ptr %3, align 1
  %5 = load ptr, ptr %2, align 8
  %6 = call i8 asm sideeffect "\09lock\09\09\09\0A\09xchgb\09$0,$1\09\0A", "=q,=*m,0,*m,~{memory},~{cc},~{dirflag},~{fpsr},~{flags}"(ptr elementtype(i8) %5, i8 %4, ptr elementtype(i8) %5) #8, !srcloc !6
  store i8 %6, ptr %3, align 1
  %7 = load i8, ptr %3, align 1
  %8 = zext i8 %7 to i32
  call void @llvm.lifetime.end.p0(i64 1, ptr %3) #8
  ret i32 %8
}

; Function Attrs: nounwind uwtable
define internal zeroext i1 @shm_mq_wait_internal(ptr noundef %0, ptr noundef %1, ptr noundef %2) #0 {
  %4 = alloca ptr, align 8
  %5 = alloca ptr, align 8
  %6 = alloca ptr, align 8
  %7 = alloca i8, align 1
  %8 = alloca i32, align 4
  %9 = alloca i32, align 4
  %10 = alloca i32, align 4
  store ptr %0, ptr %4, align 8
  store ptr %1, ptr %5, align 8
  store ptr %2, ptr %6, align 8
  call void @llvm.lifetime.start.p0(i64 1, ptr %7) #8
  store i8 0, ptr %7, align 1
  br label %11

11:                                               ; preds = %70, %3
  call void @llvm.lifetime.start.p0(i64 4, ptr %8) #8
  call void @llvm.lifetime.start.p0(i64 4, ptr %9) #8
  %12 = load ptr, ptr %4, align 8
  %13 = getelementptr inbounds nuw %struct.shm_mq, ptr %12, i32 0, i32 0
  %14 = call i32 @tas(ptr noundef %13)
  %15 = icmp ne i32 %14, 0
  br i1 %15, label %16, label %20

16:                                               ; preds = %11
  %17 = load ptr, ptr %4, align 8
  %18 = getelementptr inbounds nuw %struct.shm_mq, ptr %17, i32 0, i32 0
  %19 = call i32 @s_lock(ptr noundef %18, ptr noundef @.str, i32 noundef 1228, ptr noundef @__func__.shm_mq_wait_internal)
  br label %21

20:                                               ; preds = %11
  br label %21

21:                                               ; preds = %20, %16
  %22 = load ptr, ptr %5, align 8
  %23 = load ptr, ptr %22, align 8
  %24 = icmp ne ptr %23, null
  %25 = zext i1 %24 to i8
  store i8 %25, ptr %7, align 1
  br label %26

26:                                               ; preds = %21
  call void asm sideeffect "", "~{memory},~{dirflag},~{fpsr},~{flags}"() #8, !srcloc !22
  %27 = load ptr, ptr %4, align 8
  %28 = getelementptr inbounds nuw %struct.shm_mq, ptr %27, i32 0, i32 0
  store i8 0, ptr %28, align 8
  br label %29

29:                                               ; preds = %26
  br label %30

30:                                               ; preds = %29
  %31 = load ptr, ptr %4, align 8
  %32 = getelementptr inbounds nuw %struct.shm_mq, ptr %31, i32 0, i32 6
  %33 = load i8, ptr %32, align 8, !range !10, !noundef !11
  %34 = trunc i8 %33 to i1
  br i1 %34, label %35, label %36

35:                                               ; preds = %30
  store i8 0, ptr %7, align 1
  store i32 2, ptr %10, align 4
  br label %68

36:                                               ; preds = %30
  %37 = load i8, ptr %7, align 1, !range !10, !noundef !11
  %38 = trunc i8 %37 to i1
  br i1 %38, label %39, label %40

39:                                               ; preds = %36
  store i32 2, ptr %10, align 4
  br label %68

40:                                               ; preds = %36
  %41 = load ptr, ptr %6, align 8
  %42 = icmp ne ptr %41, null
  br i1 %42, label %43, label %53

43:                                               ; preds = %40
  %44 = load ptr, ptr %6, align 8
  %45 = call i32 @GetBackgroundWorkerPid(ptr noundef %44, ptr noundef %9)
  store i32 %45, ptr %8, align 4
  %46 = load i32, ptr %8, align 4
  %47 = icmp ne i32 %46, 0
  br i1 %47, label %48, label %52

48:                                               ; preds = %43
  %49 = load i32, ptr %8, align 4
  %50 = icmp ne i32 %49, 1
  br i1 %50, label %51, label %52

51:                                               ; preds = %48
  store i8 0, ptr %7, align 1
  store i32 2, ptr %10, align 4
  br label %68

52:                                               ; preds = %48, %43
  br label %53

53:                                               ; preds = %52, %40
  %54 = load ptr, ptr @MyLatch, align 8
  %55 = call i32 @WaitLatch(ptr noundef %54, i32 noundef 33, i64 noundef 0, i32 noundef 134217761)
  %56 = load ptr, ptr @MyLatch, align 8
  call void @ResetLatch(ptr noundef %56)
  br label %57

57:                                               ; preds = %53
  %58 = load volatile i32, ptr @InterruptPending, align 4
  %59 = icmp ne i32 %58, 0
  %60 = zext i1 %59 to i32
  %61 = sext i32 %60 to i64
  %62 = call i64 @llvm.expect.i64(i64 %61, i64 0)
  %63 = icmp ne i64 %62, 0
  br i1 %63, label %64, label %65

64:                                               ; preds = %57
  call void @ProcessInterrupts()
  br label %65

65:                                               ; preds = %64, %57
  br label %66

66:                                               ; preds = %65
  br label %67

67:                                               ; preds = %66
  store i32 0, ptr %10, align 4
  br label %68

68:                                               ; preds = %67, %51, %39, %35
  call void @llvm.lifetime.end.p0(i64 4, ptr %9) #8
  call void @llvm.lifetime.end.p0(i64 4, ptr %8) #8
  %69 = load i32, ptr %10, align 4
  switch i32 %69, label %74 [
    i32 0, label %70
    i32 2, label %71
  ]

70:                                               ; preds = %68
  br label %11

71:                                               ; preds = %68
  %72 = load i8, ptr %7, align 1, !range !10, !noundef !11
  %73 = trunc i8 %72 to i1
  store i32 1, ptr %10, align 4
  call void @llvm.lifetime.end.p0(i64 1, ptr %7) #8
  ret i1 %73

74:                                               ; preds = %68
  unreachable
}