; Function Attrs: nounwind uwtable
define internal fastcc zeroext i1 @shm_mq_wait_internal(ptr noundef %0, ptr noundef readonly captures(none) %1, ptr noundef %2) unnamed_addr #0 {
  %4 = alloca i32, align 4
  %5 = getelementptr inbounds nuw i8, ptr %0, i64 48
  %.not14 = icmp eq ptr %2, null
  br i1 %.not14, label %.split.us, label %.split

.split.us:                                        ; preds = %3, %20
  call void @llvm.lifetime.start.p0(i64 4, ptr nonnull %4) #11
  %6 = tail call i8 asm sideeffect "\09lock\09\09\09\0A\09xchgb\09$0,$1\09\0A", "=q,=*m,0,*m,~{memory},~{cc},~{dirflag},~{fpsr},~{flags}"(ptr elementtype(i8) %0, i8 1, ptr elementtype(i8) %0) #11, !srcloc !5
  %.not.us = icmp eq i8 %6, 0
  br i1 %.not.us, label %9, label %7

7:                                                ; preds = %.split.us
  %8 = tail call i32 @s_lock(ptr noundef %0, ptr noundef nonnull @.str, i32 noundef 1228, ptr noundef nonnull @__func__.shm_mq_wait_internal) #11
  br label %9

9:                                                ; preds = %7, %.split.us
  %10 = load ptr, ptr %1, align 8
  %11 = icmp ne ptr %10, null
  tail call void asm sideeffect "", "~{memory},~{dirflag},~{fpsr},~{flags}"() #11, !srcloc !25
  store i8 0, ptr %0, align 8
  %12 = load i8, ptr %5, align 8, !range !13, !noundef !14
  %13 = trunc nuw i8 %12 to i1
  %brmerge.us = select i1 %13, i1 true, i1 %11
  br i1 %brmerge.us, label %.split.loop.exit, label %14

14:                                               ; preds = %9
  %15 = load ptr, ptr @MyLatch, align 8
  %16 = tail call i32 @WaitLatch(ptr noundef %15, i32 noundef 33, i64 noundef 0, i32 noundef 134217761) #11
  %17 = load ptr, ptr @MyLatch, align 8
  tail call void @ResetLatch(ptr noundef %17) #11
  %18 = load volatile i32, ptr @InterruptPending, align 4
  %.not15.us = icmp eq i32 %18, 0
  br i1 %.not15.us, label %20, label %19, !prof !20

19:                                               ; preds = %14
  tail call void @ProcessInterrupts() #11
  br label %20

20:                                               ; preds = %19, %14
  call void @llvm.lifetime.end.p0(i64 4, ptr nonnull %4) #11
  br label %.split.us

.split:                                           ; preds = %3, %37
  call void @llvm.lifetime.start.p0(i64 4, ptr nonnull %4) #11
  %21 = call i8 asm sideeffect "\09lock\09\09\09\0A\09xchgb\09$0,$1\09\0A", "=q,=*m,0,*m,~{memory},~{cc},~{dirflag},~{fpsr},~{flags}"(ptr elementtype(i8) %0, i8 1, ptr elementtype(i8) %0) #11, !srcloc !5
  %.not = icmp eq i8 %21, 0
  br i1 %.not, label %24, label %22

22:                                               ; preds = %.split
  %23 = call i32 @s_lock(ptr noundef %0, ptr noundef nonnull @.str, i32 noundef 1228, ptr noundef nonnull @__func__.shm_mq_wait_internal) #11
  br label %24

24:                                               ; preds = %.split, %22
  %25 = load ptr, ptr %1, align 8
  %26 = icmp ne ptr %25, null
  call void asm sideeffect "", "~{memory},~{dirflag},~{fpsr},~{flags}"() #11, !srcloc !25
  store i8 0, ptr %0, align 8
  %27 = load i8, ptr %5, align 8, !range !13, !noundef !14
  %28 = trunc nuw i8 %27 to i1
  %brmerge = select i1 %28, i1 true, i1 %26
  br i1 %brmerge, label %.split.loop.exit, label %29

29:                                               ; preds = %24
  %30 = call i32 @GetBackgroundWorkerPid(ptr noundef nonnull %2, ptr noundef nonnull %4) #11
  %or.cond = icmp ugt i32 %30, 1
  br i1 %or.cond, label %.split.loop.exit20, label %31

31:                                               ; preds = %29
  %32 = load ptr, ptr @MyLatch, align 8
  %33 = call i32 @WaitLatch(ptr noundef %32, i32 noundef 33, i64 noundef 0, i32 noundef 134217761) #11
  %34 = load ptr, ptr @MyLatch, align 8
  call void @ResetLatch(ptr noundef %34) #11
  %35 = load volatile i32, ptr @InterruptPending, align 4
  %.not15 = icmp eq i32 %35, 0
  br i1 %.not15, label %37, label %36, !prof !20

36:                                               ; preds = %31
  call void @ProcessInterrupts() #11
  br label %37

37:                                               ; preds = %31, %36
  call void @llvm.lifetime.end.p0(i64 4, ptr nonnull %4) #11
  br label %.split

.split.loop.exit:                                 ; preds = %24, %9
  %.us-phi = phi i1 [ %13, %9 ], [ %28, %24 ]
  %.us-phi23 = phi i1 [ %11, %9 ], [ %26, %24 ]
  %not..le = xor i1 %.us-phi, true
  %.mux.le = select i1 %not..le, i1 %.us-phi23, i1 false
  br label %.split.loop.exit20

.split.loop.exit20:                               ; preds = %29, %.split.loop.exit
  %.012.shrunk.ph = phi i1 [ %.mux.le, %.split.loop.exit ], [ false, %29 ]
  call void @llvm.lifetime.end.p0(i64 4, ptr nonnull %4) #11
  ret i1 %.012.shrunk.ph
}